TN:
SF:/home/antyli01/dev/mbed-client-mbed-os/mbed-client-mbed-os/m2mconnectionhandlerpimpl.h
FN:43,_ZN25M2MConnectionHandlerPimpl10MbedSocketC2E14socket_stack_t21socket_proto_family_t
FN:45,_ZN25M2MConnectionHandlerPimpl10MbedSocketD2Ev
FN:45,_ZN25M2MConnectionHandlerPimpl10MbedSocketD0Ev
FN:47,_ZN25M2MConnectionHandlerPimpl10MbedSocket7connectEPKN4mbed7Sockets2v010SocketAddrEt
FNDA:21,_ZN25M2MConnectionHandlerPimpl10MbedSocketD0Ev
FNDA:3,_ZN25M2MConnectionHandlerPimpl10MbedSocket7connectEPKN4mbed7Sockets2v010SocketAddrEt
FNDA:21,_ZN25M2MConnectionHandlerPimpl10MbedSocketC2E14socket_stack_t21socket_proto_family_t
FNDA:21,_ZN25M2MConnectionHandlerPimpl10MbedSocketD2Ev
FNF:4
FNH:4
DA:43,21
DA:45,42
DA:47,3
DA:48,3
DA:49,0
DA:50,3
LF:6
LH:5
end_of_record
TN:
SF:/home/antyli01/dev/mbed-client-mbed-os/source/m2mconnectionhandler.cpp
FN:21,_ZN20M2MConnectionHandlerC2ER21M2MConnectionObserverP21M2MConnectionSecurityN12M2MInterface11BindingModeENS4_12NetworkStackE
FN:30,_ZN20M2MConnectionHandlerD2Ev
FN:35,_ZN20M2MConnectionHandler15bind_connectionEt
FN:41,_ZN20M2MConnectionHandler22resolve_server_addressERKN3m2m6StringEtN21M2MConnectionObserver10ServerTypeEPK11M2MSecurity
FN:50,_ZN20M2MConnectionHandler24start_listening_for_dataEv
FN:55,_ZN20M2MConnectionHandler14stop_listeningEv
FN:60,_ZN20M2MConnectionHandler14send_to_socketEPKhm
FN:65,_ZN20M2MConnectionHandler19receive_from_socketEPhm
FN:70,_ZN20M2MConnectionHandler9send_dataEPhtP13sn_nsdl_addr_
FN:77,_ZN20M2MConnectionHandler23handle_connection_errorEi
FNDA:1,_ZN20M2MConnectionHandler9send_dataEPhtP13sn_nsdl_addr_
FNDA:1,_ZN20M2MConnectionHandler15bind_connectionEt
FNDA:1,_ZN20M2MConnectionHandler19receive_from_socketEPhm
FNDA:1,_ZN20M2MConnectionHandler23handle_connection_errorEi
FNDA:1,_ZN20M2MConnectionHandler22resolve_server_addressERKN3m2m6StringEtN21M2MConnectionObserver10ServerTypeEPK11M2MSecurity
FNDA:9,_ZN20M2MConnectionHandlerC2ER21M2MConnectionObserverP21M2MConnectionSecurityN12M2MInterface11BindingModeENS4_12NetworkStackE
FNDA:9,_ZN20M2MConnectionHandlerD2Ev
FNDA:1,_ZN20M2MConnectionHandler14send_to_socketEPKhm
FNDA:1,_ZN20M2MConnectionHandler24start_listening_for_dataEv
FNDA:1,_ZN20M2MConnectionHandler14stop_listeningEv
FNF:10
FNH:10
DA:21,9
DA:25,9
DA:27,9
DA:28,9
DA:30,9
DA:32,9
DA:33,9
DA:35,1
DA:38,1
DA:41,1
DA:47,1
DA:50,1
DA:52,1
DA:55,1
DA:57,1
DA:58,1
DA:60,1
DA:62,1
DA:65,1
DA:67,1
DA:70,1
DA:74,1
DA:77,1
DA:79,1
DA:80,1
LF:25
LH:25
end_of_record
TN:
SF:/home/antyli01/dev/mbed-client-mbed-os/source/m2mconnectionhandlerpimpl.cpp
FN:23,_ZN25M2MConnectionHandlerPimplC2EP20M2MConnectionHandlerR21M2MConnectionObserverP21M2MConnectionSecurityN12M2MInterface11BindingModeENS6_12NetworkStackE
FN:85,_ZN25M2MConnectionHandlerPimplD2Ev
FN:102,_ZN25M2MConnectionHandlerPimpl15bind_connectionEt
FN:116,_ZN25M2MConnectionHandlerPimpl22resolve_server_addressERKN3m2m6StringEtN21M2MConnectionObserver10ServerTypeEPK11M2MSecurity
FN:135,_ZN25M2MConnectionHandlerPimpl9send_dataEPhtP13sn_nsdl_addr_
FN:170,_ZN25M2MConnectionHandlerPimpl12send_handlerEPN4mbed7Sockets2v06SocketEt
FN:175,_ZN25M2MConnectionHandlerPimpl24start_listening_for_dataEv
FN:183,_ZN25M2MConnectionHandlerPimpl14stop_listeningEv
FN:188,_ZN25M2MConnectionHandlerPimpl14send_to_socketEPKhm
FN:208,_ZN25M2MConnectionHandlerPimpl19receive_from_socketEPhm
FN:230,_ZN25M2MConnectionHandlerPimpl25receive_handshake_handlerEPN4mbed7Sockets2v06SocketE
FN:254,_ZN25M2MConnectionHandlerPimpl15receive_handlerEPN4mbed7Sockets2v06SocketE
FN:321,_ZN25M2MConnectionHandlerPimpl11dns_handlerEPN4mbed7Sockets2v06SocketE11socket_addrPKc
FN:368,_ZN25M2MConnectionHandlerPimpl13error_handlerEPN4mbed7Sockets2v06SocketE14socket_error_t
FN:378,_ZN25M2MConnectionHandlerPimpl23handle_connection_errorEi
FNDA:5,_ZN25M2MConnectionHandlerPimpl19receive_from_socketEPhm
FNDA:1,_ZN25M2MConnectionHandlerPimpl24start_listening_for_dataEv
FNDA:3,_ZN25M2MConnectionHandlerPimpl25receive_handshake_handlerEPN4mbed7Sockets2v06SocketE
FNDA:11,_ZN25M2MConnectionHandlerPimpl15receive_handlerEPN4mbed7Sockets2v06SocketE
FNDA:21,_ZN25M2MConnectionHandlerPimplD2Ev
FNDA:1,_ZN25M2MConnectionHandlerPimpl22resolve_server_addressERKN3m2m6StringEtN21M2MConnectionObserver10ServerTypeEPK11M2MSecurity
FNDA:2,_ZN25M2MConnectionHandlerPimpl15bind_connectionEt
FNDA:1,_ZN25M2MConnectionHandlerPimpl14stop_listeningEv
FNDA:6,_ZN25M2MConnectionHandlerPimpl11dns_handlerEPN4mbed7Sockets2v06SocketE11socket_addrPKc
FNDA:21,_ZN25M2MConnectionHandlerPimplC2EP20M2MConnectionHandlerR21M2MConnectionObserverP21M2MConnectionSecurityN12M2MInterface11BindingModeENS6_12NetworkStackE
FNDA:5,_ZN25M2MConnectionHandlerPimpl9send_dataEPhtP13sn_nsdl_addr_
FNDA:5,_ZN25M2MConnectionHandlerPimpl14send_to_socketEPKhm
FNDA:1,_ZN25M2MConnectionHandlerPimpl23handle_connection_errorEi
FNDA:1,_ZN25M2MConnectionHandlerPimpl12send_handlerEPN4mbed7Sockets2v06SocketEt
FNDA:1,_ZN25M2MConnectionHandlerPimpl13error_handlerEPN4mbed7Sockets2v06SocketE14socket_error_t
FNF:15
FNH:15
DA:23,21
DA:36,21
DA:38,21
DA:39,21
DA:40,21
DA:42,21
DA:44,21
DA:46,16
DA:47,16
DA:49,1
DA:50,1
DA:52,1
DA:53,1
DA:54,1
DA:56,1
DA:57,1
DA:59,1
DA:60,1
DA:61,1
DA:63,1
DA:64,1
DA:66,0
DA:69,21
DA:72,42
DA:73,21
DA:74,1
DA:75,1
DA:77,20
DA:78,20
DA:81,21
DA:82,21
DA:83,21
DA:85,42
DA:87,21
DA:88,21
DA:89,21
DA:91,21
DA:92,21
DA:93,21
DA:95,21
DA:96,21
DA:99,21
DA:100,21
DA:102,2
DA:105,2
DA:106,2
DA:107,2
DA:108,1
DA:109,1
DA:110,1
DA:113,2
DA:116,1
DA:121,1
DA:122,1
DA:123,1
DA:124,1
DA:125,1
DA:126,1
DA:127,1
DA:130,1
DA:132,1
DA:135,5
DA:139,5
DA:140,1
DA:142,4
DA:143,4
DA:144,2
DA:145,1
DA:147,1
DA:150,3
DA:151,1
DA:153,1
DA:154,1
DA:156,1
DA:157,1
DA:158,1
DA:159,1
DA:160,1
DA:161,1
DA:162,1
DA:164,1
DA:167,4
DA:170,1
DA:172,1
DA:173,1
DA:175,1
DA:179,1
DA:180,1
DA:183,1
DA:186,1
DA:188,5
DA:190,5
DA:191,9
DA:192,4
DA:193,2
DA:195,3
DA:198,5
DA:199,1
DA:200,4
DA:201,1
DA:203,3
DA:208,5
DA:211,9
DA:212,4
DA:213,2
DA:217,3
DA:221,5
DA:222,1
DA:223,4
DA:224,1
DA:226,3
DA:230,3
DA:232,3
DA:233,3
DA:234,3
DA:235,3
DA:236,4
DA:237,2
DA:238,1
DA:239,1
DA:240,1
DA:243,1
DA:244,1
DA:247,1
DA:248,1
DA:249,1
DA:254,11
DA:256,11
DA:257,11
DA:259,11
DA:260,4
DA:261,4
DA:263,2
DA:264,2
DA:265,1
DA:266,2
DA:269,7
DA:270,13
DA:271,6
DA:272,3
DA:276,4
DA:278,7
DA:280,6
DA:282,6
DA:284,6
DA:285,1
DA:286,5
DA:287,5
DA:289,6
DA:290,6
DA:292,11
DA:293,5
DA:295,3
DA:296,2
DA:297,2
DA:298,2
DA:299,2
DA:300,2
DA:301,2
DA:303,2
DA:304,2
DA:308,1
DA:309,3
DA:312,3
DA:316,1
DA:321,6
DA:323,6
DA:324,6
DA:326,6
DA:327,6
DA:329,6
DA:330,1
DA:332,5
DA:334,6
DA:335,6
DA:337,9
DA:338,3
DA:339,3
DA:342,6
DA:343,12
DA:344,6
DA:345,6
DA:346,2
DA:347,2
DA:348,2
DA:349,2
DA:350,2
DA:353,1
DA:354,1
DA:355,1
DA:356,7
DA:361,5
DA:364,4
DA:368,1
DA:373,1
DA:374,1
DA:376,1
DA:378,1
DA:381,1
DA:382,1
LF:200
LH:199
end_of_record
TN:
SF:/home/antyli01/dev/mbed-client-mbed-os/source/m2mtimerpimpl.cpp
FN:19,_ZN13M2MTimerPimplC2ER16M2MTimerObserver
FN:32,_ZN13M2MTimerPimplD2Ev
FN:32,_ZN13M2MTimerPimplD0Ev
FN:37,_ZN13M2MTimerPimpl11start_timerEmN16M2MTimerObserver4TypeEb
FN:63,_ZN13M2MTimerPimpl16start_dtls_timerEmmN16M2MTimerObserver4TypeE
FN:75,_ZN13M2MTimerPimpl10stop_timerEv
FN:83,_ZN13M2MTimerPimpl13timer_expiredEv
FN:91,_ZN13M2MTimerPimpl24still_left_timer_expiredEv
FN:114,_ZN13M2MTimerPimpl18dtls_timer_expiredEv
FN:129,_ZN13M2MTimerPimpl31is_intermediate_interval_passedEv
FN:137,_ZN13M2MTimerPimpl24is_total_interval_passedEv
FNDA:9,_ZN13M2MTimerPimplD2Ev
FNDA:9,_ZN13M2MTimerPimplC2ER16M2MTimerObserver
FNDA:2,_ZN13M2MTimerPimpl24is_total_interval_passedEv
FNDA:4,_ZN13M2MTimerPimpl11start_timerEmN16M2MTimerObserver4TypeEb
FNDA:2,_ZN13M2MTimerPimpl13timer_expiredEv
FNDA:3,_ZN13M2MTimerPimpl24still_left_timer_expiredEv
FNDA:2,_ZN13M2MTimerPimpl18dtls_timer_expiredEv
FNDA:1,_ZN13M2MTimerPimpl10stop_timerEv
FNDA:2,_ZN13M2MTimerPimpl16start_dtls_timerEmmN16M2MTimerObserver4TypeE
FNDA:9,_ZN13M2MTimerPimplD0Ev
FNDA:2,_ZN13M2MTimerPimpl31is_intermediate_interval_passedEv
FNF:11
FNH:11
DA:19,9
DA:27,9
DA:30,9
DA:32,27
DA:34,9
DA:35,18
DA:37,4
DA:41,4
DA:42,4
DA:43,4
DA:44,4
DA:45,4
DA:46,4
DA:47,4
DA:48,4
DA:50,4
DA:51,1
DA:54,1
DA:58,3
DA:61,4
DA:63,2
DA:65,2
DA:66,2
DA:67,2
DA:68,2
DA:69,2
DA:72,2
DA:73,2
DA:75,1
DA:77,1
DA:78,1
DA:79,1
DA:80,1
DA:81,1
DA:83,2
DA:85,2
DA:86,2
DA:87,1
DA:89,2
DA:91,3
DA:93,3
DA:94,3
DA:95,2
DA:96,1
DA:99,1
DA:103,1
DA:104,1
DA:107,1
DA:108,1
DA:109,1
DA:112,3
DA:114,2
DA:116,2
DA:117,2
DA:118,1
DA:121,1
DA:123,1
DA:124,1
DA:126,2
DA:129,2
DA:131,2
DA:132,1
DA:134,1
DA:137,2
DA:139,2
DA:140,1
DA:142,1
LF:67
LH:67
end_of_record
